; Function Attrs: nounwind sspstrong uwtable
define hidden i64 @ruby_marshal_read_long(ptr noundef captures(none) %0, i64 noundef %1) local_unnamed_addr #0 {
  %3 = alloca %struct.RString, align 8
  %4 = alloca %struct.load_arg, align 8
  call void @llvm.lifetime.start.p0(i64 40, ptr nonnull %3) #22
  call void @llvm.lifetime.start.p0(i64 88, ptr nonnull %4) #22
  %5 = getelementptr inbounds nuw i8, ptr %4, i64 8
  call void @llvm.memset.p0.i64(ptr noundef nonnull align 8 dereferenceable(88) %5, i8 noundef 0, i64 noundef 80, i1 noundef false) #22
  %6 = load ptr, ptr %0, align 8, !tbaa !20
  %7 = call i64 @rb_setup_fake_str(ptr noundef nonnull %3, ptr noundef %6, i64 noundef %1, ptr noundef null) #22
  store i64 %7, ptr %4, align 8, !tbaa !22
  %8 = call fastcc i32 @r_byte(ptr noundef nonnull %4)
  %sext.i = shl nuw i32 %8, 24
  %9 = ashr exact i32 %sext.i, 24
  %10 = icmp eq i32 %8, 0
  br i1 %10, label %r_long.exit, label %11

11:                                               ; preds = %2
  %12 = icmp sgt i32 %9, 0
  br i1 %12, label %13, label %26

13:                                               ; preds = %11
  %14 = icmp samesign ugt i32 %9, 4
  br i1 %14, label %16, label %.preheader.i

.preheader.i:                                     ; preds = %13
  %15 = zext nneg i32 %9 to i64
  br label %19

16:                                               ; preds = %13
  %17 = add nsw i32 %9, -5
  %18 = zext nneg i32 %17 to i64
  br label %r_long.exit

19:                                               ; preds = %19, %.preheader.i
  %.042.i = phi i64 [ 0, %.preheader.i ], [ %25, %19 ]
  %.03241.i = phi i64 [ 0, %.preheader.i ], [ %24, %19 ]
  %20 = call fastcc i32 @r_byte(ptr noundef nonnull %4)
  %21 = zext nneg i32 %20 to i64
  %22 = shl nuw nsw i64 %.042.i, 3
  %23 = shl i64 %21, %22
  %24 = or i64 %23, %.03241.i
  %25 = add nuw nsw i64 %.042.i, 1
  %exitcond45.not.i = icmp eq i64 %25, %15
  br i1 %exitcond45.not.i, label %r_long.exit, label %19, !llvm.loop !25

26:                                               ; preds = %11
  %27 = icmp slt i32 %9, -4
  br i1 %27, label %28, label %31

28:                                               ; preds = %26
  %29 = add nsw i32 %9, 5
  %30 = sext i32 %29 to i64
  br label %r_long.exit

31:                                               ; preds = %26
  %32 = sub nsw i32 0, %9
  %33 = call i32 @llvm.umax.i32(i32 %32, i32 1)
  %umax.i = zext nneg i32 %33 to i64
  br label %34

34:                                               ; preds = %34, %31
  %.140.i = phi i64 [ 0, %31 ], [ %43, %34 ]
  %.239.i = phi i64 [ -1, %31 ], [ %42, %34 ]
  %35 = shl nuw nsw i64 %.140.i, 3
  %36 = shl i64 255, %35
  %37 = xor i64 %36, -1
  %38 = and i64 %.239.i, %37
  %39 = call fastcc i32 @r_byte(ptr noundef nonnull %4)
  %40 = zext nneg i32 %39 to i64
  %41 = shl i64 %40, %35
  %42 = or i64 %41, %38
  %43 = add nuw nsw i64 %.140.i, 1
  %exitcond.not.i = icmp eq i64 %43, %umax.i
  br i1 %exitcond.not.i, label %r_long.exit, label %34, !llvm.loop !26

r_long.exit:                                      ; preds = %34, %19, %2, %16, %28
  %.034.i = phi i64 [ %18, %16 ], [ %30, %28 ], [ 0, %2 ], [ %24, %19 ], [ %42, %34 ]
  %44 = getelementptr inbounds nuw i8, ptr %4, i64 32
  %45 = load i64, ptr %44, align 8, !tbaa !27
  %46 = load ptr, ptr %0, align 8, !tbaa !20
  %47 = getelementptr i8, ptr %46, i64 %45
  store ptr %47, ptr %0, align 8, !tbaa !20
  call void @llvm.lifetime.end.p0(i64 88, ptr nonnull %4) #22
  call void @llvm.lifetime.end.p0(i64 40, ptr nonnull %3) #22
  ret i64 %.034.i
}